target datalayout = "e-m:e-p270:32:32-p271:32:32-p272:64:64-i64:64-i128:128-f80:128-n8:16:32:64-S128"
target triple = "x86_64-pc-linux-gnu"

%struct.X509_algor_st = type { ptr, ptr }
%struct.ocsp_request_st = type { %struct.ocsp_req_info_st, ptr }
%struct.ocsp_req_info_st = type { ptr, ptr, ptr, ptr }
%struct.ocsp_signature_st = type { %struct.X509_algor_st, ptr, ptr }
%struct.GENERAL_NAME_st = type { i32, %union.anon.0 }
%union.anon.0 = type { ptr }

@.str = private unnamed_addr constant [34 x i8] c"../openssl/crypto/ocsp/ocsp_vfy.c\00", align 1
@__func__.OCSP_request_verify = private unnamed_addr constant [20 x i8] c"OCSP_request_verify\00", align 1

; Function Attrs: nounwind uwtable
define internal i32 @ocsp_req_find_signer(ptr noundef %0, ptr noundef %1, ptr noundef %2, ptr noundef %3, i64 noundef %4) #0 {
  %6 = alloca i32, align 4
  %7 = alloca ptr, align 8
  %8 = alloca ptr, align 8
  %9 = alloca ptr, align 8
  %10 = alloca ptr, align 8
  %11 = alloca i64, align 8
  %12 = alloca ptr, align 8
  %13 = alloca i32, align 4
  store ptr %0, ptr %7, align 8, !tbaa !28
  store ptr %1, ptr %8, align 8, !tbaa !32
  store ptr %2, ptr %9, align 8, !tbaa !83
  store ptr %3, ptr %10, align 8, !tbaa !8
  store i64 %4, ptr %11, align 8, !tbaa !12
  call void @llvm.lifetime.start.p0(i64 8, ptr %12) #5
  %14 = load i64, ptr %11, align 8, !tbaa !12
  %15 = and i64 %14, 2
  %16 = icmp eq i64 %15, 0
  br i1 %16, label %17, label %31

17:                                               ; preds = %5
  %18 = load ptr, ptr %8, align 8, !tbaa !32
  %19 = getelementptr inbounds nuw %struct.ocsp_request_st, ptr %18, i32 0, i32 1
  %20 = load ptr, ptr %19, align 8, !tbaa !36
  %21 = getelementptr inbounds nuw %struct.ocsp_signature_st, ptr %20, i32 0, i32 2
  %22 = load ptr, ptr %21, align 8, !tbaa !84
  %23 = load ptr, ptr %9, align 8, !tbaa !83
  %24 = call ptr @X509_find_by_subject(ptr noundef %22, ptr noundef %23)
  store ptr %24, ptr %12, align 8, !tbaa !16
  %25 = load ptr, ptr %12, align 8, !tbaa !16
  %26 = icmp ne ptr %25, null
  br i1 %26, label %27, label %30

27:                                               ; preds = %17
  %28 = load ptr, ptr %12, align 8, !tbaa !16
  %29 = load ptr, ptr %7, align 8, !tbaa !28
  store ptr %28, ptr %29, align 8, !tbaa !16
  store i32 1, ptr %6, align 4
  store i32 1, ptr %13, align 4
  br label %40

30:                                               ; preds = %17
  br label %31

31:                                               ; preds = %30, %5
  %32 = load ptr, ptr %10, align 8, !tbaa !8
  %33 = load ptr, ptr %9, align 8, !tbaa !83
  %34 = call ptr @X509_find_by_subject(ptr noundef %32, ptr noundef %33)
  store ptr %34, ptr %12, align 8, !tbaa !16
  %35 = icmp ne ptr %34, null
  br i1 %35, label %36, label %39

36:                                               ; preds = %31
  %37 = load ptr, ptr %12, align 8, !tbaa !16
  %38 = load ptr, ptr %7, align 8, !tbaa !28
  store ptr %37, ptr %38, align 8, !tbaa !16
  store i32 2, ptr %6, align 4
  store i32 1, ptr %13, align 4
  br label %40

39:                                               ; preds = %31
  store i32 0, ptr %6, align 4
  store i32 1, ptr %13, align 4
  br label %40

40:                                               ; preds = %39, %36, %27
  call void @llvm.lifetime.end.p0(i64 8, ptr %12) #5
  %41 = load i32, ptr %6, align 4
  ret i32 %41
}

; Function Attrs: nounwind uwtable
define i32 @OCSP_request_verify(ptr noundef %0, ptr noundef %1, ptr noundef %2, i64 noundef %3) #0 {
  %5 = alloca i32, align 4
  %6 = alloca ptr, align 8
  %7 = alloca ptr, align 8
  %8 = alloca ptr, align 8
  %9 = alloca i64, align 8
  %10 = alloca ptr, align 8
  %11 = alloca ptr, align 8
  %12 = alloca ptr, align 8
  %13 = alloca i32, align 4
  %14 = alloca i32, align 4
  store ptr %0, ptr %6, align 8, !tbaa !32
  store ptr %1, ptr %7, align 8, !tbaa !8
  store ptr %2, ptr %8, align 8, !tbaa !10
  store i64 %3, ptr %9, align 8, !tbaa !12
  call void @llvm.lifetime.start.p0(i64 8, ptr %10) #5
  call void @llvm.lifetime.start.p0(i64 8, ptr %11) #5
  call void @llvm.lifetime.start.p0(i64 8, ptr %12) #5
  call void @llvm.lifetime.start.p0(i64 4, ptr %13) #5
  %15 = load ptr, ptr %6, align 8, !tbaa !32
  %16 = getelementptr inbounds nuw %struct.ocsp_request_st, ptr %15, i32 0, i32 1
  %17 = load ptr, ptr %16, align 8, !tbaa !36
  %18 = icmp ne ptr %17, null
  br i1 %18, label %20, label %19

19:                                               ; preds = %4
  call void @ERR_new()
  call void @ERR_set_debug(ptr noundef @.str, i32 noundef 394, ptr noundef @__func__.OCSP_request_verify)
  call void (i32, i32, ptr, ...) @ERR_set_error(i32 noundef 39, i32 noundef 128, ptr noundef null)
  store i32 0, ptr %5, align 4
  store i32 1, ptr %14, align 4
  br label %86

20:                                               ; preds = %4
  %21 = load ptr, ptr %6, align 8, !tbaa !32
  %22 = getelementptr inbounds nuw %struct.ocsp_request_st, ptr %21, i32 0, i32 0
  %23 = getelementptr inbounds nuw %struct.ocsp_req_info_st, ptr %22, i32 0, i32 1
  %24 = load ptr, ptr %23, align 8, !tbaa !78
  store ptr %24, ptr %12, align 8, !tbaa !79
  %25 = load ptr, ptr %12, align 8, !tbaa !79
  %26 = icmp ne ptr %25, null
  br i1 %26, label %27, label %32

27:                                               ; preds = %20
  %28 = load ptr, ptr %12, align 8, !tbaa !79
  %29 = getelementptr inbounds nuw %struct.GENERAL_NAME_st, ptr %28, i32 0, i32 0
  %30 = load i32, ptr %29, align 8, !tbaa !80
  %31 = icmp ne i32 %30, 4
  br i1 %31, label %32, label %33

32:                                               ; preds = %27, %20
  call void @ERR_new()
  call void @ERR_set_debug(ptr noundef @.str, i32 noundef 399, ptr noundef @__func__.OCSP_request_verify)
  call void (i32, i32, ptr, ...) @ERR_set_error(i32 noundef 39, i32 noundef 129, ptr noundef null)
  store i32 0, ptr %5, align 4
  store i32 1, ptr %14, align 4
  br label %86

33:                                               ; preds = %27
  %34 = load ptr, ptr %12, align 8, !tbaa !79
  %35 = getelementptr inbounds nuw %struct.GENERAL_NAME_st, ptr %34, i32 0, i32 1
  %36 = load ptr, ptr %35, align 8, !tbaa !82
  store ptr %36, ptr %11, align 8, !tbaa !83
  %37 = load ptr, ptr %6, align 8, !tbaa !32
  %38 = load ptr, ptr %11, align 8, !tbaa !83
  %39 = load ptr, ptr %7, align 8, !tbaa !8
  %40 = load i64, ptr %9, align 8, !tbaa !12
  %41 = call i32 @ocsp_req_find_signer(ptr noundef %10, ptr noundef %37, ptr noundef %38, ptr noundef %39, i64 noundef %40)
  store i32 %41, ptr %13, align 4, !tbaa !14
  %42 = load i32, ptr %13, align 4, !tbaa !14
  %43 = icmp sle i32 %42, 0
  br i1 %43, label %44, label %45

44:                                               ; preds = %33
  call void @ERR_new()
  call void @ERR_set_debug(ptr noundef @.str, i32 noundef 405, ptr noundef @__func__.OCSP_request_verify)
  call void (i32, i32, ptr, ...) @ERR_set_error(i32 noundef 39, i32 noundef 118, ptr noundef null)
  store i32 0, ptr %5, align 4
  store i32 1, ptr %14, align 4
  br label %86

45:                                               ; preds = %33
  %46 = load i32, ptr %13, align 4, !tbaa !14
  %47 = icmp eq i32 %46, 2
  br i1 %47, label %48, label %55

48:                                               ; preds = %45
  %49 = load i64, ptr %9, align 8, !tbaa !12
  %50 = and i64 %49, 512
  %51 = icmp ne i64 %50, 0
  br i1 %51, label %52, label %55

52:                                               ; preds = %48
  %53 = load i64, ptr %9, align 8, !tbaa !12
  %54 = or i64 %53, 16
  store i64 %54, ptr %9, align 8, !tbaa !12
  br label %55

55:                                               ; preds = %52, %48, %45
  %56 = load ptr, ptr %6, align 8, !tbaa !32
  %57 = load ptr, ptr %10, align 8, !tbaa !16
  %58 = load i64, ptr %9, align 8, !tbaa !12
  %59 = call i32 @ocsp_verify(ptr noundef %56, ptr noundef null, ptr noundef %57, i64 noundef %58)
  store i32 %59, ptr %13, align 4, !tbaa !14
  %60 = icmp sle i32 %59, 0
  br i1 %60, label %61, label %62

61:                                               ; preds = %55
  store i32 0, ptr %5, align 4
  store i32 1, ptr %14, align 4
  br label %86

62:                                               ; preds = %55
  %63 = load i64, ptr %9, align 8, !tbaa !12
  %64 = and i64 %63, 16
  %65 = icmp ne i64 %64, 0
  br i1 %65, label %66, label %67

66:                                               ; preds = %62
  store i32 1, ptr %5, align 4
  store i32 1, ptr %14, align 4
  br label %86

67:                                               ; preds = %62
  %68 = load ptr, ptr %10, align 8, !tbaa !16
  %69 = load ptr, ptr %8, align 8, !tbaa !10
  %70 = load i64, ptr %9, align 8, !tbaa !12
  %71 = load i64, ptr %9, align 8, !tbaa !12
  %72 = and i64 %71, 8
  %73 = icmp ne i64 %72, 0
  br i1 %73, label %74, label %75

74:                                               ; preds = %67
  br label %81

75:                                               ; preds = %67
  %76 = load ptr, ptr %6, align 8, !tbaa !32
  %77 = getelementptr inbounds nuw %struct.ocsp_request_st, ptr %76, i32 0, i32 1
  %78 = load ptr, ptr %77, align 8, !tbaa !36
  %79 = getelementptr inbounds nuw %struct.ocsp_signature_st, ptr %78, i32 0, i32 2
  %80 = load ptr, ptr %79, align 8, !tbaa !84
  br label %81

81:                                               ; preds = %75, %74
  %82 = phi ptr [ null, %74 ], [ %80, %75 ]
  %83 = call i32 @ocsp_verify_signer(ptr noundef %68, i32 noundef 0, ptr noundef %69, i64 noundef %70, ptr noundef %82, ptr noundef null)
  %84 = icmp sgt i32 %83, 0
  %85 = zext i1 %84 to i32
  store i32 %85, ptr %5, align 4
  store i32 1, ptr %14, align 4
  br label %86

86:                                               ; preds = %81, %66, %61, %44, %32, %19
  call void @llvm.lifetime.end.p0(i64 4, ptr %13) #5
  call void @llvm.lifetime.end.p0(i64 8, ptr %12) #5
  call void @llvm.lifetime.end.p0(i64 8, ptr %11) #5
  call void @llvm.lifetime.end.p0(i64 8, ptr %10) #5
  %87 = load i32, ptr %5, align 4
  ret i32 %87
}