; Function Attrs: nounwind uwtable
define range(i32 0, 2) i32 @OCSP_request_verify(ptr noundef %0, ptr noundef %1, ptr noundef %2, i64 noundef %3) local_unnamed_addr #0 {
  %5 = getelementptr inbounds nuw i8, ptr %0, i64 32
  %6 = load ptr, ptr %5, align 8, !tbaa !31
  %.not = icmp eq ptr %6, null
  br i1 %.not, label %7, label %8

7:                                                ; preds = %4
  tail call void @ERR_new() #4
  tail call void @ERR_set_debug(ptr noundef nonnull @.str, i32 noundef 394, ptr noundef nonnull @__func__.OCSP_request_verify) #4
  tail call void (i32, i32, ptr, ...) @ERR_set_error(i32 noundef 39, i32 noundef 128, ptr noundef null) #4
  br label %43

8:                                                ; preds = %4
  %9 = getelementptr inbounds nuw i8, ptr %0, i64 8
  %10 = load ptr, ptr %9, align 8, !tbaa !63
  %.not23 = icmp eq ptr %10, null
  br i1 %.not23, label %13, label %11

11:                                               ; preds = %8
  %12 = load i32, ptr %10, align 8, !tbaa !64
  %.not24 = icmp eq i32 %12, 4
  br i1 %.not24, label %14, label %13

13:                                               ; preds = %11, %8
  tail call void @ERR_new() #4
  tail call void @ERR_set_debug(ptr noundef nonnull @.str, i32 noundef 399, ptr noundef nonnull @__func__.OCSP_request_verify) #4
  tail call void (i32, i32, ptr, ...) @ERR_set_error(i32 noundef 39, i32 noundef 129, ptr noundef null) #4
  br label %43

14:                                               ; preds = %11
  %15 = getelementptr inbounds nuw i8, ptr %10, i64 8
  %16 = load ptr, ptr %15, align 8, !tbaa !66
  %17 = and i64 %3, 2
  %18 = icmp eq i64 %17, 0
  br i1 %18, label %19, label %23

19:                                               ; preds = %14
  %20 = getelementptr inbounds nuw i8, ptr %6, i64 24
  %21 = load ptr, ptr %20, align 8, !tbaa !67
  %22 = tail call ptr @X509_find_by_subject(ptr noundef %21, ptr noundef %16) #4
  %.not.i = icmp eq ptr %22, null
  br i1 %.not.i, label %23, label %ocsp_req_find_signer.exit.thread

23:                                               ; preds = %19, %14
  %24 = tail call ptr @X509_find_by_subject(ptr noundef %1, ptr noundef %16) #4
  %.not12.i = icmp eq ptr %24, null
  br i1 %.not12.i, label %25, label %ocsp_req_find_signer.exit

25:                                               ; preds = %23
  tail call void @ERR_new() #4
  tail call void @ERR_set_debug(ptr noundef nonnull @.str, i32 noundef 405, ptr noundef nonnull @__func__.OCSP_request_verify) #4
  tail call void (i32, i32, ptr, ...) @ERR_set_error(i32 noundef 39, i32 noundef 118, ptr noundef null) #4
  br label %43

ocsp_req_find_signer.exit:                        ; preds = %23
  %26 = lshr i64 %3, 5
  %27 = and i64 %26, 16
  %spec.select = or i64 %27, %3
  br label %ocsp_req_find_signer.exit.thread

ocsp_req_find_signer.exit.thread:                 ; preds = %19, %ocsp_req_find_signer.exit
  %.02932 = phi ptr [ %24, %ocsp_req_find_signer.exit ], [ %22, %19 ]
  %.020 = phi i64 [ %spec.select, %ocsp_req_find_signer.exit ], [ %3, %19 ]
  %28 = tail call fastcc i32 @ocsp_verify(ptr noundef nonnull %0, ptr noundef null, ptr noundef nonnull %.02932, i64 noundef %.020)
  %29 = icmp slt i32 %28, 1
  br i1 %29, label %43, label %30

30:                                               ; preds = %ocsp_req_find_signer.exit.thread
  %31 = and i64 %.020, 16
  %.not26 = icmp eq i64 %31, 0
  br i1 %.not26, label %32, label %43

32:                                               ; preds = %30
  %33 = and i64 %.020, 8
  %.not27 = icmp eq i64 %33, 0
  br i1 %.not27, label %34, label %38

34:                                               ; preds = %32
  %35 = load ptr, ptr %5, align 8, !tbaa !31
  %36 = getelementptr inbounds nuw i8, ptr %35, i64 24
  %37 = load ptr, ptr %36, align 8, !tbaa !67
  br label %38

38:                                               ; preds = %32, %34
  %39 = phi ptr [ %37, %34 ], [ null, %32 ]
  %40 = tail call fastcc i32 @ocsp_verify_signer(ptr noundef nonnull %.02932, i32 noundef 0, ptr noundef %2, i64 noundef %.020, ptr noundef %39, ptr noundef null)
  %41 = icmp sgt i32 %40, 0
  %42 = zext i1 %41 to i32
  br label %43

43:                                               ; preds = %30, %ocsp_req_find_signer.exit.thread, %38, %25, %13, %7
  %.0 = phi i32 [ 0, %13 ], [ 0, %25 ], [ %42, %38 ], [ 0, %7 ], [ 0, %ocsp_req_find_signer.exit.thread ], [ 1, %30 ]
  ret i32 %.0
}